target datalayout = "e-m:e-p270:32:32-p271:32:32-p272:64:64-i64:64-i128:128-f80:128-n8:16:32:64-S128"
target triple = "x86_64-pc-linux-gnu"

%"class.icu_77::MaybeStackArray" = type <{ ptr, i32, i8, [40 x i8], [3 x i8] }>
%"class.icu_77::CharString" = type { %"class.icu_77::MaybeStackArray", i32, [4 x i8] }

; Function Attrs: mustprogress nounwind uwtable
define weak_odr noundef ptr @_ZNK6icu_7715MaybeStackArrayIcLi40EE8getAliasEv(ptr noundef nonnull align 8 dereferenceable(53) %0) #0 comdat align 2 {
  %2 = alloca ptr, align 8
  store ptr %0, ptr %2, align 8, !tbaa !3
  %3 = load ptr, ptr %2, align 8
  %4 = getelementptr inbounds nuw %"class.icu_77::MaybeStackArray", ptr %3, i32 0, i32 0
  %5 = load ptr, ptr %4, align 8, !tbaa !8
  ret ptr %5
}

; Function Attrs: mustprogress nounwind uwtable
define weak_odr noundef nonnull align 1 dereferenceable(1) ptr @_ZN6icu_7715MaybeStackArrayIcLi40EEixEl(ptr noundef nonnull align 8 dereferenceable(53) %0, i64 noundef %1) #0 comdat align 2 {
  %3 = alloca ptr, align 8
  %4 = alloca i64, align 8
  store ptr %0, ptr %3, align 8, !tbaa !3
  store i64 %1, ptr %4, align 8, !tbaa !18
  %5 = load ptr, ptr %3, align 8
  %6 = getelementptr inbounds nuw %"class.icu_77::MaybeStackArray", ptr %5, i32 0, i32 0
  %7 = load ptr, ptr %6, align 8, !tbaa !8
  %8 = load i64, ptr %4, align 8, !tbaa !18
  %9 = getelementptr inbounds i8, ptr %7, i64 %8
  ret ptr %9
}

; Function Attrs: inlinehint mustprogress nounwind uwtable
define linkonce_odr void @_ZSt4swapIcENSt9enable_ifIXsr6__and_ISt6__not_ISt15__is_tuple_likeIT_EESt21is_move_constructibleIS3_ESt18is_move_assignableIS3_EEE5valueEvE4typeERS3_SC_(ptr noundef nonnull align 1 dereferenceable(1) %0, ptr noundef nonnull align 1 dereferenceable(1) %1) #2 comdat {
  %3 = alloca ptr, align 8
  %4 = alloca ptr, align 8
  %5 = alloca i8, align 1
  store ptr %0, ptr %3, align 8, !tbaa !17
  store ptr %1, ptr %4, align 8, !tbaa !17
  call void @llvm.lifetime.start.p0(i64 1, ptr %5) #11
  %6 = load ptr, ptr %3, align 8, !tbaa !17
  %7 = load i8, ptr %6, align 1, !tbaa !27
  store i8 %7, ptr %5, align 1, !tbaa !27
  %8 = load ptr, ptr %4, align 8, !tbaa !17
  %9 = load i8, ptr %8, align 1, !tbaa !27
  %10 = load ptr, ptr %3, align 8, !tbaa !17
  store i8 %9, ptr %10, align 1, !tbaa !27
  %11 = load i8, ptr %5, align 1, !tbaa !27
  %12 = load ptr, ptr %4, align 8, !tbaa !17
  store i8 %11, ptr %12, align 1, !tbaa !27
  call void @llvm.lifetime.end.p0(i64 1, ptr %5) #11
  ret void
}

; Function Attrs: mustprogress nounwind uwtable
define linkonce_odr noundef ptr @_ZN6icu_7710CharString4dataEv(ptr noundef nonnull align 8 dereferenceable(60) %0) #0 comdat align 2 {
  %2 = alloca ptr, align 8
  store ptr %0, ptr %2, align 8, !tbaa !23
  %3 = load ptr, ptr %2, align 8
  %4 = getelementptr inbounds nuw %"class.icu_77::CharString", ptr %3, i32 0, i32 0
  %5 = call noundef ptr @_ZNK6icu_7715MaybeStackArrayIcLi40EE8getAliasEv(ptr noundef nonnull align 8 dereferenceable(53) %4)
  ret ptr %5
}

; Function Attrs: mustprogress nounwind uwtable
define linkonce_odr noundef i32 @_ZNK6icu_7710CharString6lengthEv(ptr noundef nonnull align 8 dereferenceable(60) %0) #0 comdat align 2 {
  %2 = alloca ptr, align 8
  store ptr %0, ptr %2, align 8, !tbaa !23
  %3 = load ptr, ptr %2, align 8
  %4 = getelementptr inbounds nuw %"class.icu_77::CharString", ptr %3, i32 0, i32 1
  %5 = load i32, ptr %4, align 8, !tbaa !25
  ret i32 %5
}

; Function Attrs: inlinehint mustprogress nounwind uwtable
define internal noundef signext i8 @_ZL9U_FAILURE10UErrorCode(i32 noundef %0) #2 {
  %2 = alloca i32, align 4
  store i32 %0, ptr %2, align 4, !tbaa !15
  %3 = load i32, ptr %2, align 4, !tbaa !15
  %4 = icmp sgt i32 %3, 0
  %5 = zext i1 %4 to i8
  ret i8 %5
}

; Function Attrs: mustprogress uwtable
define noundef nonnull align 8 dereferenceable(60) ptr @_ZN6icu_7710CharString6appendEcR10UErrorCode(ptr noundef nonnull align 8 dereferenceable(60) %0, i8 noundef signext %1, ptr noundef nonnull align 4 dereferenceable(4) %2) #1 align 2 {
  %4 = alloca ptr, align 8
  %5 = alloca i8, align 1
  %6 = alloca ptr, align 8
  store ptr %0, ptr %4, align 8, !tbaa !23
  store i8 %1, ptr %5, align 1, !tbaa !27
  store ptr %2, ptr %6, align 8, !tbaa !22
  %7 = load ptr, ptr %4, align 8
  %8 = getelementptr inbounds nuw %"class.icu_77::CharString", ptr %7, i32 0, i32 1
  %9 = load i32, ptr %8, align 8, !tbaa !25
  %10 = add nsw i32 %9, 2
  %11 = load ptr, ptr %6, align 8, !tbaa !22
  %12 = call noundef signext i8 @_ZN6icu_7710CharString14ensureCapacityEiiR10UErrorCode(ptr noundef nonnull align 8 dereferenceable(60) %7, i32 noundef %10, i32 noundef 0, ptr noundef nonnull align 4 dereferenceable(4) %11)
  %13 = icmp ne i8 %12, 0
  br i1 %13, label %14, label %27

14:                                               ; preds = %3
  %15 = load i8, ptr %5, align 1, !tbaa !27
  %16 = getelementptr inbounds nuw %"class.icu_77::CharString", ptr %7, i32 0, i32 0
  %17 = getelementptr inbounds nuw %"class.icu_77::CharString", ptr %7, i32 0, i32 1
  %18 = load i32, ptr %17, align 8, !tbaa !25
  %19 = add nsw i32 %18, 1
  store i32 %19, ptr %17, align 8, !tbaa !25
  %20 = sext i32 %18 to i64
  %21 = call noundef nonnull align 1 dereferenceable(1) ptr @_ZN6icu_7715MaybeStackArrayIcLi40EEixEl(ptr noundef nonnull align 8 dereferenceable(53) %16, i64 noundef %20)
  store i8 %15, ptr %21, align 1, !tbaa !27
  %22 = getelementptr inbounds nuw %"class.icu_77::CharString", ptr %7, i32 0, i32 0
  %23 = getelementptr inbounds nuw %"class.icu_77::CharString", ptr %7, i32 0, i32 1
  %24 = load i32, ptr %23, align 8, !tbaa !25
  %25 = sext i32 %24 to i64
  %26 = call noundef nonnull align 1 dereferenceable(1) ptr @_ZN6icu_7715MaybeStackArrayIcLi40EEixEl(ptr noundef nonnull align 8 dereferenceable(53) %22, i64 noundef %25)
  store i8 0, ptr %26, align 1, !tbaa !27
  br label %27

27:                                               ; preds = %14, %3
  ret ptr %7
}

; Function Attrs: mustprogress uwtable
define noundef nonnull align 8 dereferenceable(60) ptr @_ZN6icu_7710CharString12appendNumberElR10UErrorCode(ptr noundef nonnull align 8 dereferenceable(60) %0, i64 noundef %1, ptr noundef nonnull align 4 dereferenceable(4) %2) #1 align 2 {
  %4 = alloca ptr, align 8
  %5 = alloca ptr, align 8
  %6 = alloca i64, align 8
  %7 = alloca ptr, align 8
  %8 = alloca i32, align 4
  %9 = alloca i32, align 4
  %10 = alloca i32, align 4
  %11 = alloca i32, align 4
  %12 = alloca i32, align 4
  store ptr %0, ptr %5, align 8, !tbaa !23
  store i64 %1, ptr %6, align 8, !tbaa !18
  store ptr %2, ptr %7, align 8, !tbaa !22
  %13 = load ptr, ptr %5, align 8
  %14 = load i64, ptr %6, align 8, !tbaa !18
  %15 = icmp slt i64 %14, 0
  br i1 %15, label %16, label %25

16:                                               ; preds = %3
  %17 = load ptr, ptr %7, align 8, !tbaa !22
  %18 = call noundef nonnull align 8 dereferenceable(60) ptr @_ZN6icu_7710CharString6appendEcR10UErrorCode(ptr noundef nonnull align 8 dereferenceable(60) %13, i8 noundef signext 45, ptr noundef nonnull align 4 dereferenceable(4) %17)
  %19 = load ptr, ptr %7, align 8, !tbaa !22
  %20 = load i32, ptr %19, align 4, !tbaa !15
  %21 = call noundef signext i8 @_ZL9U_FAILURE10UErrorCode(i32 noundef %20)
  %22 = icmp ne i8 %21, 0
  br i1 %22, label %23, label %24

23:                                               ; preds = %16
  store ptr %13, ptr %4, align 8
  br label %81

24:                                               ; preds = %16
  br label %25

25:                                               ; preds = %24, %3
  %26 = load i64, ptr %6, align 8, !tbaa !18
  %27 = icmp eq i64 %26, 0
  br i1 %27, label %28, label %31

28:                                               ; preds = %25
  %29 = load ptr, ptr %7, align 8, !tbaa !22
  %30 = call noundef nonnull align 8 dereferenceable(60) ptr @_ZN6icu_7710CharString6appendEcR10UErrorCode(ptr noundef nonnull align 8 dereferenceable(60) %13, i8 noundef signext 48, ptr noundef nonnull align 4 dereferenceable(4) %29)
  store ptr %13, ptr %4, align 8
  br label %81

31:                                               ; preds = %25
  call void @llvm.lifetime.start.p0(i64 4, ptr %8) #11
  store i32 0, ptr %8, align 4, !tbaa !14
  br label %32

32:                                               ; preds = %57, %31
  %33 = load i64, ptr %6, align 8, !tbaa !18
  %34 = icmp ne i64 %33, 0
  br i1 %34, label %35, label %58

35:                                               ; preds = %32
  call void @llvm.lifetime.start.p0(i64 4, ptr %9) #11
  %36 = load i64, ptr %6, align 8, !tbaa !18
  %37 = srem i64 %36, 10
  %38 = trunc i64 %37 to i32
  store i32 %38, ptr %9, align 4, !tbaa !14
  %39 = load i64, ptr %6, align 8, !tbaa !18
  %40 = sdiv i64 %39, 10
  store i64 %40, ptr %6, align 8, !tbaa !18
  %41 = load i32, ptr %9, align 4, !tbaa !14
  %42 = call i32 @llvm.abs.i32(i32 %41, i1 true)
  %43 = add nsw i32 %42, 48
  %44 = trunc i32 %43 to i8
  %45 = load ptr, ptr %7, align 8, !tbaa !22
  %46 = call noundef nonnull align 8 dereferenceable(60) ptr @_ZN6icu_7710CharString6appendEcR10UErrorCode(ptr noundef nonnull align 8 dereferenceable(60) %13, i8 noundef signext %44, ptr noundef nonnull align 4 dereferenceable(4) %45)
  %47 = load i32, ptr %8, align 4, !tbaa !14
  %48 = add nsw i32 %47, 1
  store i32 %48, ptr %8, align 4, !tbaa !14
  %49 = load ptr, ptr %7, align 8, !tbaa !22
  %50 = load i32, ptr %49, align 4, !tbaa !15
  %51 = call noundef signext i8 @_ZL9U_FAILURE10UErrorCode(i32 noundef %50)
  %52 = icmp ne i8 %51, 0
  br i1 %52, label %53, label %54

53:                                               ; preds = %35
  store ptr %13, ptr %4, align 8
  store i32 1, ptr %10, align 4
  br label %55

54:                                               ; preds = %35
  store i32 0, ptr %10, align 4
  br label %55

55:                                               ; preds = %54, %53
  call void @llvm.lifetime.end.p0(i64 4, ptr %9) #11
  %56 = load i32, ptr %10, align 4
  switch i32 %56, label %80 [
    i32 0, label %57
  ]

57:                                               ; preds = %55
  br label %32, !llvm.loop !36

58:                                               ; preds = %32
  call void @llvm.lifetime.start.p0(i64 4, ptr %11) #11
  %59 = call noundef i32 @_ZNK6icu_7710CharString6lengthEv(ptr noundef nonnull align 8 dereferenceable(60) %13)
  %60 = load i32, ptr %8, align 4, !tbaa !14
  %61 = sub nsw i32 %59, %60
  store i32 %61, ptr %11, align 4, !tbaa !14
  call void @llvm.lifetime.start.p0(i64 4, ptr %12) #11
  %62 = call noundef i32 @_ZNK6icu_7710CharString6lengthEv(ptr noundef nonnull align 8 dereferenceable(60) %13)
  %63 = sub nsw i32 %62, 1
  store i32 %63, ptr %12, align 4, !tbaa !14
  br label %64

64:                                               ; preds = %68, %58
  %65 = load i32, ptr %11, align 4, !tbaa !14
  %66 = load i32, ptr %12, align 4, !tbaa !14
  %67 = icmp slt i32 %65, %66
  br i1 %67, label %68, label %79

68:                                               ; preds = %64
  %69 = call noundef ptr @_ZN6icu_7710CharString4dataEv(ptr noundef nonnull align 8 dereferenceable(60) %13)
  %70 = load i32, ptr %11, align 4, !tbaa !14
  %71 = add nsw i32 %70, 1
  store i32 %71, ptr %11, align 4, !tbaa !14
  %72 = sext i32 %70 to i64
  %73 = getelementptr inbounds i8, ptr %69, i64 %72
  %74 = call noundef ptr @_ZN6icu_7710CharString4dataEv(ptr noundef nonnull align 8 dereferenceable(60) %13)
  %75 = load i32, ptr %12, align 4, !tbaa !14
  %76 = add nsw i32 %75, -1
  store i32 %76, ptr %12, align 4, !tbaa !14
  %77 = sext i32 %75 to i64
  %78 = getelementptr inbounds i8, ptr %74, i64 %77
  call void @_ZSt4swapIcENSt9enable_ifIXsr6__and_ISt6__not_ISt15__is_tuple_likeIT_EESt21is_move_constructibleIS3_ESt18is_move_assignableIS3_EEE5valueEvE4typeERS3_SC_(ptr noundef nonnull align 1 dereferenceable(1) %73, ptr noundef nonnull align 1 dereferenceable(1) %78) #11
  br label %64, !llvm.loop !37

79:                                               ; preds = %64
  store ptr %13, ptr %4, align 8
  store i32 1, ptr %10, align 4
  call void @llvm.lifetime.end.p0(i64 4, ptr %12) #11
  call void @llvm.lifetime.end.p0(i64 4, ptr %11) #11
  br label %80

80:                                               ; preds = %79, %55
  call void @llvm.lifetime.end.p0(i64 4, ptr %8) #11
  br label %81

81:                                               ; preds = %80, %28, %23
  %82 = load ptr, ptr %4, align 8
  ret ptr %82
}