; Function Attrs: mustprogress uwtable
define noundef nonnull align 8 dereferenceable(60) ptr @_ZN6icu_7710CharString12appendNumberElR10UErrorCode(ptr noundef nonnull returned align 8 dereferenceable(60) %0, i64 noundef %1, ptr noundef nonnull align 4 captures(none) dereferenceable(4) %2) local_unnamed_addr #1 align 2 {
  %4 = icmp slt i64 %1, 0
  br i1 %4, label %5, label %22

5:                                                ; preds = %3
  %6 = getelementptr inbounds nuw i8, ptr %0, i64 56
  %7 = load i32, ptr %6, align 8, !tbaa !15
  %8 = add nsw i32 %7, 2
  %9 = tail call noundef signext i8 @_ZN6icu_7710CharString14ensureCapacityEiiR10UErrorCode(ptr noundef nonnull align 8 dereferenceable(60) %0, i32 noundef %8, i32 noundef 0, ptr noundef nonnull align 4 dereferenceable(4) %2)
  %.not.i = icmp eq i8 %9, 0
  br i1 %.not.i, label %_ZN6icu_7710CharString6appendEcR10UErrorCode.exit, label %10

10:                                               ; preds = %5
  %11 = load i32, ptr %6, align 8, !tbaa !15
  %12 = add nsw i32 %11, 1
  store i32 %12, ptr %6, align 8, !tbaa !15
  %13 = sext i32 %11 to i64
  %14 = load ptr, ptr %0, align 8, !tbaa !3
  %15 = getelementptr inbounds i8, ptr %14, i64 %13
  store i8 45, ptr %15, align 1, !tbaa !17
  %16 = load i32, ptr %6, align 8, !tbaa !15
  %17 = sext i32 %16 to i64
  %18 = load ptr, ptr %0, align 8, !tbaa !3
  %19 = getelementptr inbounds i8, ptr %18, i64 %17
  store i8 0, ptr %19, align 1, !tbaa !17
  br label %_ZN6icu_7710CharString6appendEcR10UErrorCode.exit

_ZN6icu_7710CharString6appendEcR10UErrorCode.exit: ; preds = %5, %10
  %20 = load i32, ptr %2, align 4, !tbaa !13
  %21 = icmp slt i32 %20, 1
  br i1 %21, label %.preheader, label %_ZN6icu_7710CharString6appendEcR10UErrorCode.exit28

22:                                               ; preds = %3
  %23 = icmp eq i64 %1, 0
  br i1 %23, label %25, label %.preheader

.preheader:                                       ; preds = %_ZN6icu_7710CharString6appendEcR10UErrorCode.exit, %22
  %24 = getelementptr inbounds nuw i8, ptr %0, i64 56
  br label %40

25:                                               ; preds = %22
  %26 = getelementptr inbounds nuw i8, ptr %0, i64 56
  %27 = load i32, ptr %26, align 8, !tbaa !15
  %28 = add nsw i32 %27, 2
  %29 = tail call noundef signext i8 @_ZN6icu_7710CharString14ensureCapacityEiiR10UErrorCode(ptr noundef nonnull align 8 dereferenceable(60) %0, i32 noundef %28, i32 noundef 0, ptr noundef nonnull align 4 dereferenceable(4) %2)
  %.not.i27 = icmp eq i8 %29, 0
  br i1 %.not.i27, label %_ZN6icu_7710CharString6appendEcR10UErrorCode.exit28, label %30

30:                                               ; preds = %25
  %31 = load i32, ptr %26, align 8, !tbaa !15
  %32 = add nsw i32 %31, 1
  store i32 %32, ptr %26, align 8, !tbaa !15
  %33 = sext i32 %31 to i64
  %34 = load ptr, ptr %0, align 8, !tbaa !3
  %35 = getelementptr inbounds i8, ptr %34, i64 %33
  store i8 48, ptr %35, align 1, !tbaa !17
  %36 = load i32, ptr %26, align 8, !tbaa !15
  %37 = sext i32 %36 to i64
  %38 = load ptr, ptr %0, align 8, !tbaa !3
  %39 = getelementptr inbounds i8, ptr %38, i64 %37
  store i8 0, ptr %39, align 1, !tbaa !17
  br label %_ZN6icu_7710CharString6appendEcR10UErrorCode.exit28

40:                                               ; preds = %.preheader, %_ZN6icu_7710CharString6appendEcR10UErrorCode.exit30
  %indvars.iv38 = phi i64 [ 0, %.preheader ], [ %indvars.iv.next39, %_ZN6icu_7710CharString6appendEcR10UErrorCode.exit30 ]
  %.023 = phi i64 [ %1, %.preheader ], [ %42, %_ZN6icu_7710CharString6appendEcR10UErrorCode.exit30 ]
  %.022 = phi i32 [ 0, %.preheader ], [ %61, %_ZN6icu_7710CharString6appendEcR10UErrorCode.exit30 ]
  %.not25 = icmp eq i64 %.023, 0
  br i1 %.not25, label %64, label %41

41:                                               ; preds = %40
  %42 = sdiv i64 %.023, 10
  %43 = srem i64 %.023, 10
  %44 = load i32, ptr %24, align 8, !tbaa !15
  %45 = add nsw i32 %44, 2
  %46 = tail call noundef signext i8 @_ZN6icu_7710CharString14ensureCapacityEiiR10UErrorCode(ptr noundef nonnull align 8 dereferenceable(60) %0, i32 noundef %45, i32 noundef 0, ptr noundef nonnull align 4 dereferenceable(4) %2)
  %.not.i29 = icmp eq i8 %46, 0
  br i1 %.not.i29, label %_ZN6icu_7710CharString6appendEcR10UErrorCode.exit30, label %47

47:                                               ; preds = %41
  %48 = trunc nsw i64 %43 to i32
  %49 = tail call i32 @llvm.abs.i32(i32 %48, i1 true)
  %50 = trunc nuw nsw i32 %49 to i8
  %51 = add nuw nsw i8 %50, 48
  %52 = load i32, ptr %24, align 8, !tbaa !15
  %53 = add nsw i32 %52, 1
  store i32 %53, ptr %24, align 8, !tbaa !15
  %54 = sext i32 %52 to i64
  %55 = load ptr, ptr %0, align 8, !tbaa !3
  %56 = getelementptr inbounds i8, ptr %55, i64 %54
  store i8 %51, ptr %56, align 1, !tbaa !17
  %57 = load i32, ptr %24, align 8, !tbaa !15
  %58 = sext i32 %57 to i64
  %59 = load ptr, ptr %0, align 8, !tbaa !3
  %60 = getelementptr inbounds i8, ptr %59, i64 %58
  store i8 0, ptr %60, align 1, !tbaa !17
  br label %_ZN6icu_7710CharString6appendEcR10UErrorCode.exit30

_ZN6icu_7710CharString6appendEcR10UErrorCode.exit30: ; preds = %41, %47
  %61 = add nuw nsw i32 %.022, 1
  %62 = load i32, ptr %2, align 4, !tbaa !13
  %63 = icmp slt i32 %62, 1
  %indvars.iv.next39 = add i64 %indvars.iv38, -1
  br i1 %63, label %40, label %_ZN6icu_7710CharString6appendEcR10UErrorCode.exit28, !llvm.loop !21

64:                                               ; preds = %40
  %65 = load i32, ptr %24, align 8, !tbaa !15
  %66 = sub nsw i32 %65, %.022
  %.033 = add nsw i32 %65, -1
  %67 = icmp slt i32 %66, %.033
  br i1 %67, label %.lr.ph.preheader, label %_ZN6icu_7710CharString6appendEcR10UErrorCode.exit28

.lr.ph.preheader:                                 ; preds = %64
  %68 = sext i32 %65 to i64
  %69 = add nsw i64 %68, -1
  %70 = add nsw i64 %indvars.iv38, %68
  br label %.lr.ph

.lr.ph:                                           ; preds = %.lr.ph.preheader, %.lr.ph
  %indvars.iv41 = phi i64 [ %70, %.lr.ph.preheader ], [ %indvars.iv.next42, %.lr.ph ]
  %indvars.iv = phi i64 [ %69, %.lr.ph.preheader ], [ %indvars.iv.next, %.lr.ph ]
  %71 = load ptr, ptr %0, align 8, !tbaa !3
  %indvars.iv.next42 = add nsw i64 %indvars.iv41, 1
  %72 = getelementptr inbounds i8, ptr %71, i64 %indvars.iv41
  %73 = getelementptr inbounds i8, ptr %71, i64 %indvars.iv
  %74 = load i8, ptr %72, align 1, !tbaa !17
  %75 = load i8, ptr %73, align 1, !tbaa !17
  store i8 %75, ptr %72, align 1, !tbaa !17
  store i8 %74, ptr %73, align 1, !tbaa !17
  %indvars.iv.next = add nsw i64 %indvars.iv, -1
  %76 = icmp slt i64 %indvars.iv.next42, %indvars.iv.next
  br i1 %76, label %.lr.ph, label %_ZN6icu_7710CharString6appendEcR10UErrorCode.exit28, !llvm.loop !22

_ZN6icu_7710CharString6appendEcR10UErrorCode.exit28: ; preds = %_ZN6icu_7710CharString6appendEcR10UErrorCode.exit30, %.lr.ph, %64, %30, %25, %_ZN6icu_7710CharString6appendEcR10UErrorCode.exit
  ret ptr %0
}